target datalayout = "e-m:e-p270:32:32-p271:32:32-p272:64:64-i64:64-i128:128-f80:128-n8:16:32:64-S128"
target triple = "x86_64-unknown-linux-gnu"

%struct.USBWacomState = type { %struct.USBDevice, ptr, ptr, i32, i32, i32, i32, i32, i32, i32, i32, i8, i32 }
%struct.USBDevice = type { %struct.DeviceState, ptr, ptr, ptr, ptr, i32, ptr, ptr, i32, i32, i8, [32 x i8], i32, i8, i32, [8 x i8], [4096 x i8], i32, i32, i32, i32, %struct.USBEndpoint, [15 x %struct.USBEndpoint], [15 x %struct.USBEndpoint], %struct.anon, ptr, ptr, i32, i32, [16 x i32], ptr, [16 x ptr] }
%struct.DeviceState = type { %struct.Object, ptr, ptr, i8, i8, i64, ptr, i32, i8, ptr, %struct.NamedGPIOListHead, %struct.NamedClockListHead, %struct.BusStateHead, i32, i32, i32, %struct.ResettableState, ptr, %struct.MemReentrancyGuard }
%struct.Object = type { ptr, ptr, ptr, i32, ptr }
%struct.NamedGPIOListHead = type { ptr }
%struct.NamedClockListHead = type { ptr }
%struct.BusStateHead = type { ptr }
%struct.ResettableState = type { i32, i8, i8 }
%struct.MemReentrancyGuard = type { i8 }
%struct.USBEndpoint = type { i8, i8, i8, i8, i32, i32, i8, i8, ptr, %union.anon }
%union.anon = type { %struct.QTailQLink }
%struct.QTailQLink = type { ptr, ptr }
%struct.anon = type { ptr }

@.str.15 = private unnamed_addr constant [23 x i8] c"QEMU PenPartner tablet\00", align 1

; Function Attrs: nounwind sspstrong uwtable
define internal i32 @usb_wacom_poll(ptr noundef %s, ptr noundef %buf, i32 noundef %len) #0 {
entry:
  %retval = alloca i32, align 4
  %s.addr = alloca ptr, align 8
  %buf.addr = alloca ptr, align 8
  %len.addr = alloca i32, align 4
  %b = alloca i32, align 4
  store ptr %s, ptr %s.addr, align 8
  store ptr %buf, ptr %buf.addr, align 8
  store i32 %len, ptr %len.addr, align 4
  %0 = load ptr, ptr %s.addr, align 8
  %mouse_grabbed = getelementptr inbounds %struct.USBWacomState, ptr %0, i32 0, i32 9
  %1 = load i32, ptr %mouse_grabbed, align 8
  %tobool = icmp ne i32 %1, 0
  br i1 %tobool, label %if.end, label %if.then

if.then:                                          ; preds = %entry
  %2 = load ptr, ptr %s.addr, align 8
  %call = call ptr @qemu_add_mouse_event_handler(ptr noundef @usb_wacom_event, ptr noundef %2, i32 noundef 1, ptr noundef @.str.15)
  %3 = load ptr, ptr %s.addr, align 8
  %eh_entry = getelementptr inbounds %struct.USBWacomState, ptr %3, i32 0, i32 2
  store ptr %call, ptr %eh_entry, align 8
  %4 = load ptr, ptr %s.addr, align 8
  %eh_entry1 = getelementptr inbounds %struct.USBWacomState, ptr %4, i32 0, i32 2
  %5 = load ptr, ptr %eh_entry1, align 8
  call void @qemu_activate_mouse_event_handler(ptr noundef %5)
  %6 = load ptr, ptr %s.addr, align 8
  %mouse_grabbed2 = getelementptr inbounds %struct.USBWacomState, ptr %6, i32 0, i32 9
  store i32 1, ptr %mouse_grabbed2, align 8
  br label %if.end

if.end:                                           ; preds = %if.then, %entry
  store i32 0, ptr %b, align 4
  %7 = load ptr, ptr %s.addr, align 8
  %buttons_state = getelementptr inbounds %struct.USBWacomState, ptr %7, i32 0, i32 6
  %8 = load i32, ptr %buttons_state, align 4
  %and = and i32 %8, 1
  %tobool3 = icmp ne i32 %and, 0
  br i1 %tobool3, label %if.then4, label %if.end5

if.then4:                                         ; preds = %if.end
  %9 = load i32, ptr %b, align 4
  %or = or i32 %9, 1
  store i32 %or, ptr %b, align 4
  br label %if.end5

if.end5:                                          ; preds = %if.then4, %if.end
  %10 = load ptr, ptr %s.addr, align 8
  %buttons_state6 = getelementptr inbounds %struct.USBWacomState, ptr %10, i32 0, i32 6
  %11 = load i32, ptr %buttons_state6, align 4
  %and7 = and i32 %11, 2
  %tobool8 = icmp ne i32 %and7, 0
  br i1 %tobool8, label %if.then9, label %if.end11

if.then9:                                         ; preds = %if.end5
  %12 = load i32, ptr %b, align 4
  %or10 = or i32 %12, 64
  store i32 %or10, ptr %b, align 4
  br label %if.end11

if.end11:                                         ; preds = %if.then9, %if.end5
  %13 = load ptr, ptr %s.addr, align 8
  %buttons_state12 = getelementptr inbounds %struct.USBWacomState, ptr %13, i32 0, i32 6
  %14 = load i32, ptr %buttons_state12, align 4
  %and13 = and i32 %14, 4
  %tobool14 = icmp ne i32 %and13, 0
  br i1 %tobool14, label %if.then15, label %if.end17

if.then15:                                        ; preds = %if.end11
  %15 = load i32, ptr %b, align 4
  %or16 = or i32 %15, 32
  store i32 %or16, ptr %b, align 4
  br label %if.end17

if.end17:                                         ; preds = %if.then15, %if.end11
  %16 = load i32, ptr %len.addr, align 4
  %cmp = icmp slt i32 %16, 7
  br i1 %cmp, label %if.then18, label %if.end19

if.then18:                                        ; preds = %if.end17
  store i32 0, ptr %retval, align 4
  br label %return

if.end19:                                         ; preds = %if.end17
  %17 = load ptr, ptr %s.addr, align 8
  %mode = getelementptr inbounds %struct.USBWacomState, ptr %17, i32 0, i32 10
  %18 = load i32, ptr %mode, align 4
  %conv = trunc i32 %18 to i8
  %19 = load ptr, ptr %buf.addr, align 8
  %arrayidx = getelementptr i8, ptr %19, i64 0
  store i8 %conv, ptr %arrayidx, align 1
  %20 = load i32, ptr %b, align 4
  %and20 = and i32 %20, 240
  %or21 = or i32 0, %and20
  %conv22 = trunc i32 %or21 to i8
  %21 = load ptr, ptr %buf.addr, align 8
  %arrayidx23 = getelementptr i8, ptr %21, i64 5
  store i8 %conv22, ptr %arrayidx23, align 1
  %22 = load ptr, ptr %s.addr, align 8
  %x = getelementptr inbounds %struct.USBWacomState, ptr %22, i32 0, i32 7
  %23 = load i32, ptr %x, align 8
  %and24 = and i32 %23, 255
  %conv25 = trunc i32 %and24 to i8
  %24 = load ptr, ptr %buf.addr, align 8
  %arrayidx26 = getelementptr i8, ptr %24, i64 1
  store i8 %conv25, ptr %arrayidx26, align 1
  %25 = load ptr, ptr %s.addr, align 8
  %x27 = getelementptr inbounds %struct.USBWacomState, ptr %25, i32 0, i32 7
  %26 = load i32, ptr %x27, align 8
  %shr = ashr i32 %26, 8
  %conv28 = trunc i32 %shr to i8
  %27 = load ptr, ptr %buf.addr, align 8
  %arrayidx29 = getelementptr i8, ptr %27, i64 2
  store i8 %conv28, ptr %arrayidx29, align 1
  %28 = load ptr, ptr %s.addr, align 8
  %y = getelementptr inbounds %struct.USBWacomState, ptr %28, i32 0, i32 8
  %29 = load i32, ptr %y, align 4
  %and30 = and i32 %29, 255
  %conv31 = trunc i32 %and30 to i8
  %30 = load ptr, ptr %buf.addr, align 8
  %arrayidx32 = getelementptr i8, ptr %30, i64 3
  store i8 %conv31, ptr %arrayidx32, align 1
  %31 = load ptr, ptr %s.addr, align 8
  %y33 = getelementptr inbounds %struct.USBWacomState, ptr %31, i32 0, i32 8
  %32 = load i32, ptr %y33, align 4
  %shr34 = ashr i32 %32, 8
  %conv35 = trunc i32 %shr34 to i8
  %33 = load ptr, ptr %buf.addr, align 8
  %arrayidx36 = getelementptr i8, ptr %33, i64 4
  store i8 %conv35, ptr %arrayidx36, align 1
  %34 = load i32, ptr %b, align 4
  %and37 = and i32 %34, 63
  %tobool38 = icmp ne i32 %and37, 0
  br i1 %tobool38, label %if.then39, label %if.else

if.then39:                                        ; preds = %if.end19
  %35 = load ptr, ptr %buf.addr, align 8
  %arrayidx40 = getelementptr i8, ptr %35, i64 6
  store i8 0, ptr %arrayidx40, align 1
  br label %if.end42

if.else:                                          ; preds = %if.end19
  %36 = load ptr, ptr %buf.addr, align 8
  %arrayidx41 = getelementptr i8, ptr %36, i64 6
  store i8 -127, ptr %arrayidx41, align 1
  br label %if.end42

if.end42:                                         ; preds = %if.else, %if.then39
  store i32 7, ptr %retval, align 4
  br label %return

return:                                           ; preds = %if.end42, %if.then18
  %37 = load i32, ptr %retval, align 4
  ret i32 %37
}