; Function Attrs: nounwind sspstrong uwtable
define internal fastcc range(i32 0, 8) i32 @usb_wacom_poll(ptr noundef %s, ptr noundef writeonly captures(none) %buf, i32 noundef %len) unnamed_addr #0 {
entry:
  %mouse_grabbed = getelementptr inbounds nuw i8, ptr %s, i64 5904
  %0 = load i32, ptr %mouse_grabbed, align 8
  %tobool.not = icmp eq i32 %0, 0
  br i1 %tobool.not, label %if.then, label %if.end

if.then:                                          ; preds = %entry
  %call = tail call ptr @qemu_add_mouse_event_handler(ptr noundef nonnull @usb_wacom_event, ptr noundef nonnull %s, i32 noundef 1, ptr noundef nonnull @.str.15) #7
  %eh_entry = getelementptr inbounds nuw i8, ptr %s, i64 5872
  store ptr %call, ptr %eh_entry, align 8
  tail call void @qemu_activate_mouse_event_handler(ptr noundef %call) #7
  store i32 1, ptr %mouse_grabbed, align 8
  br label %if.end

if.end:                                           ; preds = %if.then, %entry
  %cmp = icmp slt i32 %len, 7
  br i1 %cmp, label %return, label %if.end19

if.end19:                                         ; preds = %if.end
  %buttons_state = getelementptr inbounds nuw i8, ptr %s, i64 5892
  %1 = load i32, ptr %buttons_state, align 4
  %and = and i32 %1, 1
  %and7 = shl i32 %1, 5
  %2 = and i32 %and7, 64
  %and13 = shl i32 %1, 3
  %3 = and i32 %and13, 32
  %b.2 = or disjoint i32 %2, %3
  %mode = getelementptr inbounds nuw i8, ptr %s, i64 5908
  %4 = load i32, ptr %mode, align 4
  %conv = trunc i32 %4 to i8
  store i8 %conv, ptr %buf, align 1
  %5 = trunc nuw nsw i32 %b.2 to i8
  %arrayidx23 = getelementptr i8, ptr %buf, i64 5
  store i8 %5, ptr %arrayidx23, align 1
  %x = getelementptr inbounds nuw i8, ptr %s, i64 5896
  %6 = load i32, ptr %x, align 8
  %conv25 = trunc i32 %6 to i8
  %arrayidx26 = getelementptr i8, ptr %buf, i64 1
  store i8 %conv25, ptr %arrayidx26, align 1
  %7 = load i32, ptr %x, align 8
  %shr = lshr i32 %7, 8
  %conv28 = trunc i32 %shr to i8
  %arrayidx29 = getelementptr i8, ptr %buf, i64 2
  store i8 %conv28, ptr %arrayidx29, align 1
  %y = getelementptr inbounds nuw i8, ptr %s, i64 5900
  %8 = load i32, ptr %y, align 4
  %conv31 = trunc i32 %8 to i8
  %arrayidx32 = getelementptr i8, ptr %buf, i64 3
  store i8 %conv31, ptr %arrayidx32, align 1
  %9 = load i32, ptr %y, align 4
  %shr34 = lshr i32 %9, 8
  %conv35 = trunc i32 %shr34 to i8
  %arrayidx36 = getelementptr i8, ptr %buf, i64 4
  store i8 %conv35, ptr %arrayidx36, align 1
  %and37 = or disjoint i32 %3, %and
  %tobool38.not = icmp eq i32 %and37, 0
  %arrayidx41 = getelementptr i8, ptr %buf, i64 6
  %. = select i1 %tobool38.not, i8 -127, i8 0
  store i8 %., ptr %arrayidx41, align 1
  br label %return

return:                                           ; preds = %if.end19, %if.end
  %retval.0 = phi i32 [ 0, %if.end ], [ 7, %if.end19 ]
  ret i32 %retval.0
}